
sand glass.elf:     file format elf32-avr

Sections:
Idx Name          Size      VMA       LMA       File off  Algn
  0 .text         00000390  00000000  00000000  00000074  2**1
                  CONTENTS, ALLOC, LOAD, READONLY, CODE
  1 .data         00000000  00800060  00000390  00000404  2**0
                  CONTENTS, ALLOC, LOAD, DATA
  2 .comment      00000030  00000000  00000000  00000404  2**0
                  CONTENTS, READONLY
  3 .debug_aranges 00000020  00000000  00000000  00000434  2**0
                  CONTENTS, READONLY, DEBUGGING
  4 .debug_info   00000916  00000000  00000000  00000454  2**0
                  CONTENTS, READONLY, DEBUGGING
  5 .debug_abbrev 000000cf  00000000  00000000  00000d6a  2**0
                  CONTENTS, READONLY, DEBUGGING
  6 .debug_line   00000405  00000000  00000000  00000e39  2**0
                  CONTENTS, READONLY, DEBUGGING
  7 .debug_frame  00000024  00000000  00000000  00001240  2**2
                  CONTENTS, READONLY, DEBUGGING
  8 .debug_str    00000162  00000000  00000000  00001264  2**0
                  CONTENTS, READONLY, DEBUGGING
  9 .debug_ranges 00000010  00000000  00000000  000013c6  2**0
                  CONTENTS, READONLY, DEBUGGING

Disassembly of section .text:

00000000 <__vectors>:
   0:	12 c0       	rjmp	.+36     	; 0x26 <__ctors_end>
   2:	19 c0       	rjmp	.+50     	; 0x36 <__bad_interrupt>
   4:	18 c0       	rjmp	.+48     	; 0x36 <__bad_interrupt>
   6:	17 c0       	rjmp	.+46     	; 0x36 <__bad_interrupt>
   8:	16 c0       	rjmp	.+44     	; 0x36 <__bad_interrupt>
   a:	15 c0       	rjmp	.+42     	; 0x36 <__bad_interrupt>
   c:	14 c0       	rjmp	.+40     	; 0x36 <__bad_interrupt>
   e:	13 c0       	rjmp	.+38     	; 0x36 <__bad_interrupt>
  10:	12 c0       	rjmp	.+36     	; 0x36 <__bad_interrupt>
  12:	11 c0       	rjmp	.+34     	; 0x36 <__bad_interrupt>
  14:	10 c0       	rjmp	.+32     	; 0x36 <__bad_interrupt>
  16:	0f c0       	rjmp	.+30     	; 0x36 <__bad_interrupt>
  18:	0e c0       	rjmp	.+28     	; 0x36 <__bad_interrupt>
  1a:	0d c0       	rjmp	.+26     	; 0x36 <__bad_interrupt>
  1c:	0c c0       	rjmp	.+24     	; 0x36 <__bad_interrupt>
  1e:	0b c0       	rjmp	.+22     	; 0x36 <__bad_interrupt>
  20:	0a c0       	rjmp	.+20     	; 0x36 <__bad_interrupt>
  22:	09 c0       	rjmp	.+18     	; 0x36 <__bad_interrupt>
  24:	08 c0       	rjmp	.+16     	; 0x36 <__bad_interrupt>

00000026 <__ctors_end>:
  26:	11 24       	eor	r1, r1
  28:	1f be       	out	0x3f, r1	; 63
  2a:	cf e5       	ldi	r28, 0x5F	; 95
  2c:	d4 e0       	ldi	r29, 0x04	; 4
  2e:	de bf       	out	0x3e, r29	; 62
  30:	cd bf       	out	0x3d, r28	; 61
  32:	02 d0       	rcall	.+4      	; 0x38 <main>
  34:	ab c1       	rjmp	.+854    	; 0x38c <_exit>

00000036 <__bad_interrupt>:
  36:	e4 cf       	rjmp	.-56     	; 0x0 <__vectors>

00000038 <main>:

#include <avr/io.h>
#include <util/delay.h>
void main()
{
	DDRB=0XFF;
  38:	8f ef       	ldi	r24, 0xFF	; 255
  3a:	87 bb       	out	0x17, r24	; 23
	
	while(1)
	{
		PORTB=0x01;			// ALL LED BLINK
  3c:	66 24       	eor	r6, r6
  3e:	63 94       	inc	r6
		_delay_ms(1000);
		PORTB=0X02;
  40:	68 94       	set
  42:	77 24       	eor	r7, r7
  44:	71 f8       	bld	r7, 1
		_delay_ms(1000);
		PORTB=0X04;
  46:	68 94       	set
  48:	88 24       	eor	r8, r8
  4a:	82 f8       	bld	r8, 2
		_delay_ms(1000);
		PORTB=0X08;
  4c:	68 94       	set
  4e:	99 24       	eor	r9, r9
  50:	93 f8       	bld	r9, 3
		_delay_ms(1000);
		PORTB=0X10;
  52:	68 94       	set
  54:	aa 24       	eor	r10, r10
  56:	a4 f8       	bld	r10, 4
		_delay_ms(1000);
		PORTB=0X20;
  58:	68 94       	set
  5a:	bb 24       	eor	r11, r11
  5c:	b5 f8       	bld	r11, 5
		_delay_ms(1000);
		PORTB=0X40;
  5e:	68 94       	set
  60:	cc 24       	eor	r12, r12
  62:	c6 f8       	bld	r12, 6
		_delay_ms(1000);
		PORTB=0X80;
  64:	68 94       	set
  66:	dd 24       	eor	r13, r13
  68:	d7 f8       	bld	r13, 7
		_delay_ms(1000);
		
		// LED 8 WILL BE ON AND ALL OTHER BLINK
		
		PORTB=0X81;
  6a:	0f 2e       	mov	r0, r31
  6c:	f1 e8       	ldi	r31, 0x81	; 129
  6e:	ef 2e       	mov	r14, r31
  70:	f0 2d       	mov	r31, r0
		_delay_ms(1000);
		PORTB=0X82;
  72:	0f 2e       	mov	r0, r31
  74:	f2 e8       	ldi	r31, 0x82	; 130
  76:	ff 2e       	mov	r15, r31
  78:	f0 2d       	mov	r31, r0
		_delay_ms(1000);
		PORTB=0X84;
  7a:	04 e8       	ldi	r16, 0x84	; 132
		_delay_ms(1000);
		PORTB=0X88;
  7c:	18 e8       	ldi	r17, 0x88	; 136
		_delay_ms(1000);
		PORTB=0X90;
  7e:	d0 e9       	ldi	r29, 0x90	; 144
		_delay_ms(1000);
		PORTB=0XA0;
  80:	c0 ea       	ldi	r28, 0xA0	; 160
		_delay_ms(1000);
		PORTB=0XC0;
  82:	b0 ec       	ldi	r27, 0xC0	; 192
	    _delay_ms(1000);
		
		// LED 7 & 8 WILL BE ON AND ALL OTHER BLINK
		
		PORTB=0XC1;
  84:	a1 ec       	ldi	r26, 0xC1	; 193
		_delay_ms(1000);
		PORTB=0XC2;
  86:	f2 ec       	ldi	r31, 0xC2	; 194
		_delay_ms(1000);
		PORTB=0XC4;
  88:	e4 ec       	ldi	r30, 0xC4	; 196
		_delay_ms(1000);
		PORTB=0XC8;
  8a:	78 ec       	ldi	r23, 0xC8	; 200
		_delay_ms(1000);
		PORTB=0XD0;
  8c:	60 ed       	ldi	r22, 0xD0	; 208
		_delay_ms(1000);
		PORTB=0XE0;
  8e:	50 ee       	ldi	r21, 0xE0	; 224
		_delay_ms(1000);
				
		// LET 6,7,8 WILL BE ON AND ALL OTHER BLINK
		
		PORTB=0XE1;
  90:	41 ee       	ldi	r20, 0xE1	; 225
		_delay_ms(1000);
		PORTB=0XE2;
  92:	32 ee       	ldi	r19, 0xE2	; 226
		_delay_ms(1000);
		PORTB=0XE4;
  94:	0f 2e       	mov	r0, r31
  96:	f4 ee       	ldi	r31, 0xE4	; 228
  98:	5f 2e       	mov	r5, r31
  9a:	f0 2d       	mov	r31, r0
		_delay_ms(1000);
		PORTB=0XE8;
  9c:	0f 2e       	mov	r0, r31
  9e:	f8 ee       	ldi	r31, 0xE8	; 232
  a0:	4f 2e       	mov	r4, r31
  a2:	f0 2d       	mov	r31, r0
{
	DDRB=0XFF;
	
	while(1)
	{
		PORTB=0x01;			// ALL LED BLINK
  a4:	68 ba       	out	0x18, r6	; 24
	#else
		//round up by default
		__ticks_dc = (uint32_t)(ceil(fabs(__tmp)));
	#endif

	__builtin_avr_delay_cycles(__ticks_dc);
  a6:	2f e3       	ldi	r18, 0x3F	; 63
  a8:	8d e0       	ldi	r24, 0x0D	; 13
  aa:	93 e0       	ldi	r25, 0x03	; 3
  ac:	21 50       	subi	r18, 0x01	; 1
  ae:	80 40       	sbci	r24, 0x00	; 0
  b0:	90 40       	sbci	r25, 0x00	; 0
  b2:	e1 f7       	brne	.-8      	; 0xac <__SREG__+0x6d>
  b4:	00 c0       	rjmp	.+0      	; 0xb6 <__SREG__+0x77>
  b6:	00 00       	nop
		_delay_ms(1000);
		PORTB=0X02;
  b8:	78 ba       	out	0x18, r7	; 24
  ba:	2f e3       	ldi	r18, 0x3F	; 63
  bc:	8d e0       	ldi	r24, 0x0D	; 13
  be:	93 e0       	ldi	r25, 0x03	; 3
  c0:	21 50       	subi	r18, 0x01	; 1
  c2:	80 40       	sbci	r24, 0x00	; 0
  c4:	90 40       	sbci	r25, 0x00	; 0
  c6:	e1 f7       	brne	.-8      	; 0xc0 <__SREG__+0x81>
  c8:	00 c0       	rjmp	.+0      	; 0xca <__SREG__+0x8b>
  ca:	00 00       	nop
		_delay_ms(1000);
		PORTB=0X04;
  cc:	88 ba       	out	0x18, r8	; 24
  ce:	2f e3       	ldi	r18, 0x3F	; 63
  d0:	8d e0       	ldi	r24, 0x0D	; 13
  d2:	93 e0       	ldi	r25, 0x03	; 3
  d4:	21 50       	subi	r18, 0x01	; 1
  d6:	80 40       	sbci	r24, 0x00	; 0
  d8:	90 40       	sbci	r25, 0x00	; 0
  da:	e1 f7       	brne	.-8      	; 0xd4 <__SREG__+0x95>
  dc:	00 c0       	rjmp	.+0      	; 0xde <__SREG__+0x9f>
  de:	00 00       	nop
		_delay_ms(1000);
		PORTB=0X08;
  e0:	98 ba       	out	0x18, r9	; 24
  e2:	2f e3       	ldi	r18, 0x3F	; 63
  e4:	8d e0       	ldi	r24, 0x0D	; 13
  e6:	93 e0       	ldi	r25, 0x03	; 3
  e8:	21 50       	subi	r18, 0x01	; 1
  ea:	80 40       	sbci	r24, 0x00	; 0
  ec:	90 40       	sbci	r25, 0x00	; 0
  ee:	e1 f7       	brne	.-8      	; 0xe8 <__SREG__+0xa9>
  f0:	00 c0       	rjmp	.+0      	; 0xf2 <__SREG__+0xb3>
  f2:	00 00       	nop
		_delay_ms(1000);
		PORTB=0X10;
  f4:	a8 ba       	out	0x18, r10	; 24
  f6:	2f e3       	ldi	r18, 0x3F	; 63
  f8:	8d e0       	ldi	r24, 0x0D	; 13
  fa:	93 e0       	ldi	r25, 0x03	; 3
  fc:	21 50       	subi	r18, 0x01	; 1
  fe:	80 40       	sbci	r24, 0x00	; 0
 100:	90 40       	sbci	r25, 0x00	; 0
 102:	e1 f7       	brne	.-8      	; 0xfc <__SREG__+0xbd>
 104:	00 c0       	rjmp	.+0      	; 0x106 <__SREG__+0xc7>
 106:	00 00       	nop
		_delay_ms(1000);
		PORTB=0X20;
 108:	b8 ba       	out	0x18, r11	; 24
 10a:	2f e3       	ldi	r18, 0x3F	; 63
 10c:	8d e0       	ldi	r24, 0x0D	; 13
 10e:	93 e0       	ldi	r25, 0x03	; 3
 110:	21 50       	subi	r18, 0x01	; 1
 112:	80 40       	sbci	r24, 0x00	; 0
 114:	90 40       	sbci	r25, 0x00	; 0
 116:	e1 f7       	brne	.-8      	; 0x110 <__SREG__+0xd1>
 118:	00 c0       	rjmp	.+0      	; 0x11a <__SREG__+0xdb>
 11a:	00 00       	nop
		_delay_ms(1000);
		PORTB=0X40;
 11c:	c8 ba       	out	0x18, r12	; 24
 11e:	2f e3       	ldi	r18, 0x3F	; 63
 120:	8d e0       	ldi	r24, 0x0D	; 13
 122:	93 e0       	ldi	r25, 0x03	; 3
 124:	21 50       	subi	r18, 0x01	; 1
 126:	80 40       	sbci	r24, 0x00	; 0
 128:	90 40       	sbci	r25, 0x00	; 0
 12a:	e1 f7       	brne	.-8      	; 0x124 <__SREG__+0xe5>
 12c:	00 c0       	rjmp	.+0      	; 0x12e <__SREG__+0xef>
 12e:	00 00       	nop
		_delay_ms(1000);
		PORTB=0X80;
 130:	d8 ba       	out	0x18, r13	; 24
 132:	2f e3       	ldi	r18, 0x3F	; 63
 134:	8d e0       	ldi	r24, 0x0D	; 13
 136:	93 e0       	ldi	r25, 0x03	; 3
 138:	21 50       	subi	r18, 0x01	; 1
 13a:	80 40       	sbci	r24, 0x00	; 0
 13c:	90 40       	sbci	r25, 0x00	; 0
 13e:	e1 f7       	brne	.-8      	; 0x138 <__SREG__+0xf9>
 140:	00 c0       	rjmp	.+0      	; 0x142 <__SREG__+0x103>
 142:	00 00       	nop
		_delay_ms(1000);
		
		// LED 8 WILL BE ON AND ALL OTHER BLINK
		
		PORTB=0X81;
 144:	e8 ba       	out	0x18, r14	; 24
 146:	2f e3       	ldi	r18, 0x3F	; 63
 148:	8d e0       	ldi	r24, 0x0D	; 13
 14a:	93 e0       	ldi	r25, 0x03	; 3
 14c:	21 50       	subi	r18, 0x01	; 1
 14e:	80 40       	sbci	r24, 0x00	; 0
 150:	90 40       	sbci	r25, 0x00	; 0
 152:	e1 f7       	brne	.-8      	; 0x14c <__SREG__+0x10d>
 154:	00 c0       	rjmp	.+0      	; 0x156 <__SREG__+0x117>
 156:	00 00       	nop
		_delay_ms(1000);
		PORTB=0X82;
 158:	f8 ba       	out	0x18, r15	; 24
 15a:	2f e3       	ldi	r18, 0x3F	; 63
 15c:	8d e0       	ldi	r24, 0x0D	; 13
 15e:	93 e0       	ldi	r25, 0x03	; 3
 160:	21 50       	subi	r18, 0x01	; 1
 162:	80 40       	sbci	r24, 0x00	; 0
 164:	90 40       	sbci	r25, 0x00	; 0
 166:	e1 f7       	brne	.-8      	; 0x160 <__SREG__+0x121>
 168:	00 c0       	rjmp	.+0      	; 0x16a <__SREG__+0x12b>
 16a:	00 00       	nop
		_delay_ms(1000);
		PORTB=0X84;
 16c:	08 bb       	out	0x18, r16	; 24
 16e:	2f e3       	ldi	r18, 0x3F	; 63
 170:	8d e0       	ldi	r24, 0x0D	; 13
 172:	93 e0       	ldi	r25, 0x03	; 3
 174:	21 50       	subi	r18, 0x01	; 1
 176:	80 40       	sbci	r24, 0x00	; 0
 178:	90 40       	sbci	r25, 0x00	; 0
 17a:	e1 f7       	brne	.-8      	; 0x174 <__SREG__+0x135>
 17c:	00 c0       	rjmp	.+0      	; 0x17e <__SREG__+0x13f>
 17e:	00 00       	nop
		_delay_ms(1000);
		PORTB=0X88;
 180:	18 bb       	out	0x18, r17	; 24
 182:	2f e3       	ldi	r18, 0x3F	; 63
 184:	8d e0       	ldi	r24, 0x0D	; 13
 186:	93 e0       	ldi	r25, 0x03	; 3
 188:	21 50       	subi	r18, 0x01	; 1
 18a:	80 40       	sbci	r24, 0x00	; 0
 18c:	90 40       	sbci	r25, 0x00	; 0
 18e:	e1 f7       	brne	.-8      	; 0x188 <__SREG__+0x149>
 190:	00 c0       	rjmp	.+0      	; 0x192 <__SREG__+0x153>
 192:	00 00       	nop
		_delay_ms(1000);
		PORTB=0X90;
 194:	d8 bb       	out	0x18, r29	; 24
 196:	2f e3       	ldi	r18, 0x3F	; 63
 198:	8d e0       	ldi	r24, 0x0D	; 13
 19a:	93 e0       	ldi	r25, 0x03	; 3
 19c:	21 50       	subi	r18, 0x01	; 1
 19e:	80 40       	sbci	r24, 0x00	; 0
 1a0:	90 40       	sbci	r25, 0x00	; 0
 1a2:	e1 f7       	brne	.-8      	; 0x19c <__SREG__+0x15d>
 1a4:	00 c0       	rjmp	.+0      	; 0x1a6 <__SREG__+0x167>
 1a6:	00 00       	nop
		_delay_ms(1000);
		PORTB=0XA0;
 1a8:	c8 bb       	out	0x18, r28	; 24
 1aa:	2f e3       	ldi	r18, 0x3F	; 63
 1ac:	8d e0       	ldi	r24, 0x0D	; 13
 1ae:	93 e0       	ldi	r25, 0x03	; 3
 1b0:	21 50       	subi	r18, 0x01	; 1
 1b2:	80 40       	sbci	r24, 0x00	; 0
 1b4:	90 40       	sbci	r25, 0x00	; 0
 1b6:	e1 f7       	brne	.-8      	; 0x1b0 <__SREG__+0x171>
 1b8:	00 c0       	rjmp	.+0      	; 0x1ba <__SREG__+0x17b>
 1ba:	00 00       	nop
		_delay_ms(1000);
		PORTB=0XC0;
 1bc:	b8 bb       	out	0x18, r27	; 24
 1be:	2f e3       	ldi	r18, 0x3F	; 63
 1c0:	8d e0       	ldi	r24, 0x0D	; 13
 1c2:	93 e0       	ldi	r25, 0x03	; 3
 1c4:	21 50       	subi	r18, 0x01	; 1
 1c6:	80 40       	sbci	r24, 0x00	; 0
 1c8:	90 40       	sbci	r25, 0x00	; 0
 1ca:	e1 f7       	brne	.-8      	; 0x1c4 <__SREG__+0x185>
 1cc:	00 c0       	rjmp	.+0      	; 0x1ce <__SREG__+0x18f>
 1ce:	00 00       	nop
	    _delay_ms(1000);
		
		// LED 7 & 8 WILL BE ON AND ALL OTHER BLINK
		
		PORTB=0XC1;
 1d0:	a8 bb       	out	0x18, r26	; 24
 1d2:	2f e3       	ldi	r18, 0x3F	; 63
 1d4:	8d e0       	ldi	r24, 0x0D	; 13
 1d6:	93 e0       	ldi	r25, 0x03	; 3
 1d8:	21 50       	subi	r18, 0x01	; 1
 1da:	80 40       	sbci	r24, 0x00	; 0
 1dc:	90 40       	sbci	r25, 0x00	; 0
 1de:	e1 f7       	brne	.-8      	; 0x1d8 <__SREG__+0x199>
 1e0:	00 c0       	rjmp	.+0      	; 0x1e2 <__SREG__+0x1a3>
 1e2:	00 00       	nop
		_delay_ms(1000);
		PORTB=0XC2;
 1e4:	f8 bb       	out	0x18, r31	; 24
 1e6:	2f e3       	ldi	r18, 0x3F	; 63
 1e8:	8d e0       	ldi	r24, 0x0D	; 13
 1ea:	93 e0       	ldi	r25, 0x03	; 3
 1ec:	21 50       	subi	r18, 0x01	; 1
 1ee:	80 40       	sbci	r24, 0x00	; 0
 1f0:	90 40       	sbci	r25, 0x00	; 0
 1f2:	e1 f7       	brne	.-8      	; 0x1ec <__SREG__+0x1ad>
 1f4:	00 c0       	rjmp	.+0      	; 0x1f6 <__SREG__+0x1b7>
 1f6:	00 00       	nop
		_delay_ms(1000);
		PORTB=0XC4;
 1f8:	e8 bb       	out	0x18, r30	; 24
 1fa:	2f e3       	ldi	r18, 0x3F	; 63
 1fc:	8d e0       	ldi	r24, 0x0D	; 13
 1fe:	93 e0       	ldi	r25, 0x03	; 3
 200:	21 50       	subi	r18, 0x01	; 1
 202:	80 40       	sbci	r24, 0x00	; 0
 204:	90 40       	sbci	r25, 0x00	; 0
 206:	e1 f7       	brne	.-8      	; 0x200 <__SREG__+0x1c1>
 208:	00 c0       	rjmp	.+0      	; 0x20a <__SREG__+0x1cb>
 20a:	00 00       	nop
		_delay_ms(1000);
		PORTB=0XC8;
 20c:	78 bb       	out	0x18, r23	; 24
 20e:	2f e3       	ldi	r18, 0x3F	; 63
 210:	8d e0       	ldi	r24, 0x0D	; 13
 212:	93 e0       	ldi	r25, 0x03	; 3
 214:	21 50       	subi	r18, 0x01	; 1
 216:	80 40       	sbci	r24, 0x00	; 0
 218:	90 40       	sbci	r25, 0x00	; 0
 21a:	e1 f7       	brne	.-8      	; 0x214 <__SREG__+0x1d5>
 21c:	00 c0       	rjmp	.+0      	; 0x21e <__SREG__+0x1df>
 21e:	00 00       	nop
		_delay_ms(1000);
		PORTB=0XD0;
 220:	68 bb       	out	0x18, r22	; 24
 222:	2f e3       	ldi	r18, 0x3F	; 63
 224:	8d e0       	ldi	r24, 0x0D	; 13
 226:	93 e0       	ldi	r25, 0x03	; 3
 228:	21 50       	subi	r18, 0x01	; 1
 22a:	80 40       	sbci	r24, 0x00	; 0
 22c:	90 40       	sbci	r25, 0x00	; 0
 22e:	e1 f7       	brne	.-8      	; 0x228 <__SREG__+0x1e9>
 230:	00 c0       	rjmp	.+0      	; 0x232 <__SREG__+0x1f3>
 232:	00 00       	nop
		_delay_ms(1000);
		PORTB=0XE0;
 234:	58 bb       	out	0x18, r21	; 24
 236:	2f e3       	ldi	r18, 0x3F	; 63
 238:	8d e0       	ldi	r24, 0x0D	; 13
 23a:	93 e0       	ldi	r25, 0x03	; 3
 23c:	21 50       	subi	r18, 0x01	; 1
 23e:	80 40       	sbci	r24, 0x00	; 0
 240:	90 40       	sbci	r25, 0x00	; 0
 242:	e1 f7       	brne	.-8      	; 0x23c <__SREG__+0x1fd>
 244:	00 c0       	rjmp	.+0      	; 0x246 <__SREG__+0x207>
 246:	00 00       	nop
		_delay_ms(1000);
				
		// LET 6,7,8 WILL BE ON AND ALL OTHER BLINK
		
		PORTB=0XE1;
 248:	48 bb       	out	0x18, r20	; 24
 24a:	2f e3       	ldi	r18, 0x3F	; 63
 24c:	8d e0       	ldi	r24, 0x0D	; 13
 24e:	93 e0       	ldi	r25, 0x03	; 3
 250:	21 50       	subi	r18, 0x01	; 1
 252:	80 40       	sbci	r24, 0x00	; 0
 254:	90 40       	sbci	r25, 0x00	; 0
 256:	e1 f7       	brne	.-8      	; 0x250 <__SREG__+0x211>
 258:	00 c0       	rjmp	.+0      	; 0x25a <__SREG__+0x21b>
 25a:	00 00       	nop
		_delay_ms(1000);
		PORTB=0XE2;
 25c:	38 bb       	out	0x18, r19	; 24
 25e:	2f e3       	ldi	r18, 0x3F	; 63
 260:	8d e0       	ldi	r24, 0x0D	; 13
 262:	93 e0       	ldi	r25, 0x03	; 3
 264:	21 50       	subi	r18, 0x01	; 1
 266:	80 40       	sbci	r24, 0x00	; 0
 268:	90 40       	sbci	r25, 0x00	; 0
 26a:	e1 f7       	brne	.-8      	; 0x264 <__SREG__+0x225>
 26c:	00 c0       	rjmp	.+0      	; 0x26e <__SREG__+0x22f>
 26e:	00 00       	nop
		_delay_ms(1000);
		PORTB=0XE4;
 270:	58 ba       	out	0x18, r5	; 24
 272:	2f e3       	ldi	r18, 0x3F	; 63
 274:	8d e0       	ldi	r24, 0x0D	; 13
 276:	93 e0       	ldi	r25, 0x03	; 3
 278:	21 50       	subi	r18, 0x01	; 1
 27a:	80 40       	sbci	r24, 0x00	; 0
 27c:	90 40       	sbci	r25, 0x00	; 0
 27e:	e1 f7       	brne	.-8      	; 0x278 <__SREG__+0x239>
 280:	00 c0       	rjmp	.+0      	; 0x282 <__SREG__+0x243>
 282:	00 00       	nop
		_delay_ms(1000);
		PORTB=0XE8;
 284:	48 ba       	out	0x18, r4	; 24
 286:	2f e3       	ldi	r18, 0x3F	; 63
 288:	8d e0       	ldi	r24, 0x0D	; 13
 28a:	93 e0       	ldi	r25, 0x03	; 3
 28c:	21 50       	subi	r18, 0x01	; 1
 28e:	80 40       	sbci	r24, 0x00	; 0
 290:	90 40       	sbci	r25, 0x00	; 0
 292:	e1 f7       	brne	.-8      	; 0x28c <__SREG__+0x24d>
 294:	00 c0       	rjmp	.+0      	; 0x296 <__SREG__+0x257>
 296:	00 00       	nop
		_delay_ms(1000);
		PORTB=0XF0;
 298:	80 ef       	ldi	r24, 0xF0	; 240
 29a:	88 bb       	out	0x18, r24	; 24
 29c:	2f e3       	ldi	r18, 0x3F	; 63
 29e:	8d e0       	ldi	r24, 0x0D	; 13
 2a0:	93 e0       	ldi	r25, 0x03	; 3
 2a2:	21 50       	subi	r18, 0x01	; 1
 2a4:	80 40       	sbci	r24, 0x00	; 0
 2a6:	90 40       	sbci	r25, 0x00	; 0
 2a8:	e1 f7       	brne	.-8      	; 0x2a2 <__SREG__+0x263>
 2aa:	00 c0       	rjmp	.+0      	; 0x2ac <__SREG__+0x26d>
 2ac:	00 00       	nop
		_delay_ms(1000);
		
		// LET 5,6,7,8 WILL BE ON AND ALL OTHER BLINK
		
		PORTB=0XF1;
 2ae:	81 ef       	ldi	r24, 0xF1	; 241
 2b0:	88 bb       	out	0x18, r24	; 24
 2b2:	2f e3       	ldi	r18, 0x3F	; 63
 2b4:	8d e0       	ldi	r24, 0x0D	; 13
 2b6:	93 e0       	ldi	r25, 0x03	; 3
 2b8:	21 50       	subi	r18, 0x01	; 1
 2ba:	80 40       	sbci	r24, 0x00	; 0
 2bc:	90 40       	sbci	r25, 0x00	; 0
 2be:	e1 f7       	brne	.-8      	; 0x2b8 <__SREG__+0x279>
 2c0:	00 c0       	rjmp	.+0      	; 0x2c2 <__SREG__+0x283>
 2c2:	00 00       	nop
		_delay_ms(1000);
		PORTB=0XF2;
 2c4:	82 ef       	ldi	r24, 0xF2	; 242
 2c6:	88 bb       	out	0x18, r24	; 24
 2c8:	2f e3       	ldi	r18, 0x3F	; 63
 2ca:	8d e0       	ldi	r24, 0x0D	; 13
 2cc:	93 e0       	ldi	r25, 0x03	; 3
 2ce:	21 50       	subi	r18, 0x01	; 1
 2d0:	80 40       	sbci	r24, 0x00	; 0
 2d2:	90 40       	sbci	r25, 0x00	; 0
 2d4:	e1 f7       	brne	.-8      	; 0x2ce <__SREG__+0x28f>
 2d6:	00 c0       	rjmp	.+0      	; 0x2d8 <__SREG__+0x299>
 2d8:	00 00       	nop
		_delay_ms(1000);
		PORTB=0XF4;
 2da:	84 ef       	ldi	r24, 0xF4	; 244
 2dc:	88 bb       	out	0x18, r24	; 24
 2de:	2f e3       	ldi	r18, 0x3F	; 63
 2e0:	8d e0       	ldi	r24, 0x0D	; 13
 2e2:	93 e0       	ldi	r25, 0x03	; 3
 2e4:	21 50       	subi	r18, 0x01	; 1
 2e6:	80 40       	sbci	r24, 0x00	; 0
 2e8:	90 40       	sbci	r25, 0x00	; 0
 2ea:	e1 f7       	brne	.-8      	; 0x2e4 <__SREG__+0x2a5>
 2ec:	00 c0       	rjmp	.+0      	; 0x2ee <__SREG__+0x2af>
 2ee:	00 00       	nop
		_delay_ms(1000);
		PORTB=0XF8;
 2f0:	88 ef       	ldi	r24, 0xF8	; 248
 2f2:	88 bb       	out	0x18, r24	; 24
 2f4:	2f e3       	ldi	r18, 0x3F	; 63
 2f6:	8d e0       	ldi	r24, 0x0D	; 13
 2f8:	93 e0       	ldi	r25, 0x03	; 3
 2fa:	21 50       	subi	r18, 0x01	; 1
 2fc:	80 40       	sbci	r24, 0x00	; 0
 2fe:	90 40       	sbci	r25, 0x00	; 0
 300:	e1 f7       	brne	.-8      	; 0x2fa <__SREG__+0x2bb>
 302:	00 c0       	rjmp	.+0      	; 0x304 <__SREG__+0x2c5>
 304:	00 00       	nop
		_delay_ms(1000);
		
		// LET 4,5,6,7,8 WILL BE ON AND ALL OTHER BLINK
		
		PORTB=0XF9;
 306:	89 ef       	ldi	r24, 0xF9	; 249
 308:	88 bb       	out	0x18, r24	; 24
 30a:	2f e3       	ldi	r18, 0x3F	; 63
 30c:	8d e0       	ldi	r24, 0x0D	; 13
 30e:	93 e0       	ldi	r25, 0x03	; 3
 310:	21 50       	subi	r18, 0x01	; 1
 312:	80 40       	sbci	r24, 0x00	; 0
 314:	90 40       	sbci	r25, 0x00	; 0
 316:	e1 f7       	brne	.-8      	; 0x310 <__SREG__+0x2d1>
 318:	00 c0       	rjmp	.+0      	; 0x31a <__SREG__+0x2db>
 31a:	00 00       	nop
		_delay_ms(1000);
		PORTB=0XFA;
 31c:	8a ef       	ldi	r24, 0xFA	; 250
 31e:	88 bb       	out	0x18, r24	; 24
 320:	2f e3       	ldi	r18, 0x3F	; 63
 322:	8d e0       	ldi	r24, 0x0D	; 13
 324:	93 e0       	ldi	r25, 0x03	; 3
 326:	21 50       	subi	r18, 0x01	; 1
 328:	80 40       	sbci	r24, 0x00	; 0
 32a:	90 40       	sbci	r25, 0x00	; 0
 32c:	e1 f7       	brne	.-8      	; 0x326 <__SREG__+0x2e7>
 32e:	00 c0       	rjmp	.+0      	; 0x330 <__SREG__+0x2f1>
 330:	00 00       	nop
		_delay_ms(1000);
		PORTB=0XFC;
 332:	8c ef       	ldi	r24, 0xFC	; 252
 334:	88 bb       	out	0x18, r24	; 24
 336:	2f e3       	ldi	r18, 0x3F	; 63
 338:	8d e0       	ldi	r24, 0x0D	; 13
 33a:	93 e0       	ldi	r25, 0x03	; 3
 33c:	21 50       	subi	r18, 0x01	; 1
 33e:	80 40       	sbci	r24, 0x00	; 0
 340:	90 40       	sbci	r25, 0x00	; 0
 342:	e1 f7       	brne	.-8      	; 0x33c <__SREG__+0x2fd>
 344:	00 c0       	rjmp	.+0      	; 0x346 <__SREG__+0x307>
 346:	00 00       	nop
		_delay_ms(1000);
		
		// LET 3,4,5,6,7,8 WILL BE ON AND ALL OTHER BLINK
		
		PORTB=0XFD;
 348:	8d ef       	ldi	r24, 0xFD	; 253
 34a:	88 bb       	out	0x18, r24	; 24
 34c:	2f e3       	ldi	r18, 0x3F	; 63
 34e:	8d e0       	ldi	r24, 0x0D	; 13
 350:	93 e0       	ldi	r25, 0x03	; 3
 352:	21 50       	subi	r18, 0x01	; 1
 354:	80 40       	sbci	r24, 0x00	; 0
 356:	90 40       	sbci	r25, 0x00	; 0
 358:	e1 f7       	brne	.-8      	; 0x352 <__SREG__+0x313>
 35a:	00 c0       	rjmp	.+0      	; 0x35c <__SREG__+0x31d>
 35c:	00 00       	nop
		_delay_ms(1000);
		PORTB=0XFE;
 35e:	8e ef       	ldi	r24, 0xFE	; 254
 360:	88 bb       	out	0x18, r24	; 24
 362:	2f e3       	ldi	r18, 0x3F	; 63
 364:	8d e0       	ldi	r24, 0x0D	; 13
 366:	93 e0       	ldi	r25, 0x03	; 3
 368:	21 50       	subi	r18, 0x01	; 1
 36a:	80 40       	sbci	r24, 0x00	; 0
 36c:	90 40       	sbci	r25, 0x00	; 0
 36e:	e1 f7       	brne	.-8      	; 0x368 <__SREG__+0x329>
 370:	00 c0       	rjmp	.+0      	; 0x372 <__SREG__+0x333>
 372:	00 00       	nop
		_delay_ms(1000);
		
		// LET 2,3,4,5,6,7,8 WILL BE ON AND ALL OTHER BLINK
		
		PORTB=0XFF;
 374:	8f ef       	ldi	r24, 0xFF	; 255
 376:	88 bb       	out	0x18, r24	; 24
 378:	2f e3       	ldi	r18, 0x3F	; 63
 37a:	8d e0       	ldi	r24, 0x0D	; 13
 37c:	93 e0       	ldi	r25, 0x03	; 3
 37e:	21 50       	subi	r18, 0x01	; 1
 380:	80 40       	sbci	r24, 0x00	; 0
 382:	90 40       	sbci	r25, 0x00	; 0
 384:	e1 f7       	brne	.-8      	; 0x37e <__SREG__+0x33f>
 386:	00 c0       	rjmp	.+0      	; 0x388 <__SREG__+0x349>
 388:	00 00       	nop
 38a:	8c ce       	rjmp	.-744    	; 0xa4 <__SREG__+0x65>

0000038c <_exit>:
 38c:	f8 94       	cli

0000038e <__stop_program>:
 38e:	ff cf       	rjmp	.-2      	; 0x38e <__stop_program>
